#include <math.h>
#include <stdio.h>
#include <stdlib.h>
#include <string.h>
#define LEN 100
#define ASCII 100
#define MAX_N 100
#define MAX_M 100
#define MAX 100
#define ASC 100
#define null 0
#define Len 100
#define SUM 100
#define NUMBER 100
#define SIZE 100
#define Y 100
#define MAXN 100
#define MAXSIZE 100
#define maxrow 100
#define maxcol 100
#define mx 100
#define NUM 100
#define ROW 100
#define COL 100
#define SIZEE 100
#define MAX_LEN 100
#define LIU 100
#define maxsize 100
#define NUM 100
#define NO 100
#define Null 0
#define ID_DIGITS 100
#define INT_MAX 100
#define INT_MIN 100
#define FALSE 0
#define TRUE 1
#define hang 100
#define lie 100
#define lll 100
#define LEM 100
#define j 100
#define K 100
#define INF 100
#define MONTH 12
#define true 1
#define PI 100
#define maxlen 100
#define maxinputint 100
#define STUDENT_NUM 100
#define length 100
struct student
{
	char num[20];
	char name[21];
	char sex;
	int age;
    char score[20];
	char address[21];
	struct student *next;
};
int n;

struct student *create(void)
{
	struct student *head;
	struct student *p1,*p2;
	n=0;
	p1=p2=(struct student *)malloc(length);
	scanf("%s",p1->num);
	head=null;
	while(strcmp(p1->num,"end")!=0)
	{
		scanf("%s %c %d %s %s",p1->name,&p1->sex,&p1->age,p1->score,p1->address);
		n=n+1;
		if(n==1) head=p1;
		else p2->next=p1;
		p2=p1;
		p1=(struct student *)malloc(length);
		scanf("%s",p1->num);
	}
	p2->next=null;
	return head;
}
void print(struct student *head)
{
	struct student *p,*q;
	p=head;
	if(head!=null)
	{
		do
		{
			printf("%s %s %c %d %s %s\n",p->num,p->name,p->sex,p->age,p->score,p->address);
			q=p;
			p=p->next;
			free(q);
		}
		while(p!=null);

	}
}

struct student *converse(struct student *head)
{
	struct student *p1,*p2,*p3;
	p1=p2=head;

	if(head!=null)
	{
		while(p2->next!=null)
		{
			p3=p2->next;
			if(p2==head) p2->next=null;
			else p2->next=p1;
			p1=p2;
			p2=p3;
		}
		p2->next=p1;
		head=p2;
	}
	return head;
}

void main()
{
	
	struct student *p=create();
	p=converse(p);
	print(p);
}


	


	


